target datalayout = "e-m:e-p270:32:32-p271:32:32-p272:64:64-i64:64-i128:128-f80:128-n8:16:32:64-S128"
target triple = "x86_64-pc-linux-gnu"

; Function Attrs: nounwind uwtable
define dso_local ptr @findNotNullConstraint(i32 noundef %0, ptr noundef %1) #0 {
  %3 = alloca ptr, align 8
  %4 = alloca i32, align 4
  %5 = alloca ptr, align 8
  %6 = alloca i16, align 2
  %7 = alloca i32, align 4
  store i32 %0, ptr %4, align 4
  store ptr %1, ptr %5, align 8
  call void @llvm.lifetime.start.p0(i64 2, ptr %6) #9
  %8 = load i32, ptr %4, align 4
  %9 = load ptr, ptr %5, align 8
  %10 = call signext i16 @get_attnum(i32 noundef %8, ptr noundef %9)
  store i16 %10, ptr %6, align 2
  %11 = load i16, ptr %6, align 2
  %12 = sext i16 %11 to i32
  %13 = icmp sle i32 %12, 0
  br i1 %13, label %14, label %15

14:                                               ; preds = %2
  store ptr null, ptr %3, align 8
  store i32 1, ptr %7, align 4
  br label %19

15:                                               ; preds = %2
  %16 = load i32, ptr %4, align 4
  %17 = load i16, ptr %6, align 2
  %18 = call ptr @findNotNullConstraintAttnum(i32 noundef %16, i16 noundef signext %17)
  store ptr %18, ptr %3, align 8
  store i32 1, ptr %7, align 4
  br label %19

19:                                               ; preds = %15, %14
  call void @llvm.lifetime.end.p0(i64 2, ptr %6) #9
  %20 = load ptr, ptr %3, align 8
  ret ptr %20
}