; Function Attrs: nounwind uwtable
define dso_local ptr @findNotNullConstraint(i32 noundef %0, ptr noundef %1) local_unnamed_addr #0 {
  %3 = tail call signext i16 @get_attnum(i32 noundef %0, ptr noundef %1) #12
  %4 = icmp slt i16 %3, 1
  br i1 %4, label %7, label %5

5:                                                ; preds = %2
  %6 = tail call ptr @findNotNullConstraintAttnum(i32 noundef %0, i16 noundef signext %3)
  br label %7

7:                                                ; preds = %2, %5
  %.0 = phi ptr [ %6, %5 ], [ null, %2 ]
  ret ptr %.0
}